; ModuleID = '30/183.c'
source_filename = "30/183.c"
target datalayout = "e-m:e-p270:32:32-p271:32:32-p272:64:64-i64:64-f80:128-n8:16:32:64-S128"
target triple = "x86_64-pc-linux-gnu"

@.str = private unnamed_addr constant [3 x i8] c"%d\00", align 1
@.str.1 = private unnamed_addr constant [4 x i8] c"%ld\00", align 1

; Function Attrs: noinline nounwind uwtable
define dso_local i32 @main() #0 {
  %1 = alloca i32, align 4
  %2 = alloca [11 x [100 x float]], align 16
  %3 = alloca float, align 4
  %4 = alloca float, align 4
  %5 = alloca i32, align 4
  %6 = alloca i32, align 4
  %7 = alloca i32, align 4
  %8 = alloca i32, align 4
  %9 = alloca i64, align 8
  store i32 0, i32* %1, align 4
  store float 0.000000e+00, float* %3, align 4
  store i32 0, i32* %8, align 4
  store i64 0, i64* %9, align 8
  %10 = call i32 (i8*, ...) @__isoc99_scanf(i8* getelementptr inbounds ([3 x i8], [3 x i8]* @.str, i64 0, i64 0), i32* %6)
  store i32 1, i32* %5, align 4
  br label %11

11:                                               ; preds = %31, %0
  %12 = load i32, i32* %5, align 4
  %13 = load i32, i32* %6, align 4
  %14 = icmp sle i32 %12, %13
  br i1 %14, label %15, label %34

15:                                               ; preds = %11
  %16 = load i32, i32* %5, align 4
  %17 = srem i32 %16, 7
  %18 = icmp ne i32 %17, 0
  br i1 %18, label %19, label %30

19:                                               ; preds = %15
  %20 = load i32, i32* %5, align 4
  %21 = call i32 @seven(i32 %20)
  %22 = icmp eq i32 %21, 0
  br i1 %22, label %23, label %30

23:                                               ; preds = %19
  %24 = load i32, i32* %5, align 4
  %25 = load i32, i32* %5, align 4
  %26 = mul nsw i32 %24, %25
  %27 = sext i32 %26 to i64
  %28 = load i64, i64* %9, align 8
  %29 = add nsw i64 %28, %27
  store i64 %29, i64* %9, align 8
  br label %30

30:                                               ; preds = %23, %19, %15
  br label %31

31:                                               ; preds = %30
  %32 = load i32, i32* %5, align 4
  %33 = add nsw i32 %32, 1
  store i32 %33, i32* %5, align 4
  br label %11

34:                                               ; preds = %11
  %35 = load i64, i64* %9, align 8
  %36 = call i32 (i8*, ...) @printf(i8* getelementptr inbounds ([4 x i8], [4 x i8]* @.str.1, i64 0, i64 0), i64 %35)
  ret i32 0
}

declare dso_local i32 @__isoc99_scanf(i8*, ...) #1

; Function Attrs: noinline nounwind uwtable
define dso_local i32 @seven(i32 %0) #0 {
  %2 = alloca i32, align 4
  %3 = alloca i32, align 4
  %4 = alloca i32, align 4
  store i32 %0, i32* %3, align 4
  store i32 1, i32* %4, align 4
  br label %5

5:                                                ; preds = %34, %1
  %6 = load i32, i32* %4, align 4
  %7 = icmp sge i32 %6, 0
  br i1 %7, label %8, label %37

8:                                                ; preds = %5
  %9 = load i32, i32* %3, align 4
  %10 = load i32, i32* %4, align 4
  %11 = sitofp i32 %10 to double
  %12 = call double @pow(double 1.000000e+01, double %11) #3
  %13 = fptosi double %12 to i32
  %14 = sdiv i32 %9, %13
  %15 = icmp eq i32 %14, 7
  br i1 %15, label %16, label %17

16:                                               ; preds = %8
  store i32 1, i32* %2, align 4
  br label %38

17:                                               ; preds = %8
  %18 = load i32, i32* %3, align 4
  %19 = load i32, i32* %4, align 4
  %20 = sitofp i32 %19 to double
  %21 = call double @pow(double 1.000000e+01, double %20) #3
  %22 = fptosi double %21 to i32
  %23 = sdiv i32 %18, %22
  %24 = sitofp i32 %23 to double
  %25 = load i32, i32* %4, align 4
  %26 = sitofp i32 %25 to double
  %27 = call double @pow(double 1.000000e+01, double %26) #3
  %28 = fmul double %24, %27
  %29 = load i32, i32* %3, align 4
  %30 = sitofp i32 %29 to double
  %31 = fsub double %30, %28
  %32 = fptosi double %31 to i32
  store i32 %32, i32* %3, align 4
  br label %33

33:                                               ; preds = %17
  br label %34

34:                                               ; preds = %33
  %35 = load i32, i32* %4, align 4
  %36 = add nsw i32 %35, -1
  store i32 %36, i32* %4, align 4
  br label %5

37:                                               ; preds = %5
  store i32 0, i32* %2, align 4
  br label %38

38:                                               ; preds = %37, %16
  %39 = load i32, i32* %2, align 4
  ret i32 %39
}

declare dso_local i32 @printf(i8*, ...) #1

; Function Attrs: nounwind
declare dso_local double @pow(double, double) #2


!llvm.module.flags = !{!0}
!llvm.ident = !{!1}

!0 = !{i32 1, !"wchar_size", i32 4}
!1 = !{!"clang version 10.0.0-4ubuntu1 "}
